target datalayout = "e-m:e-p270:32:32-p271:32:32-p272:64:64-i64:64-i128:128-f80:128-n8:16:32:64-S128"
target triple = "x86_64-pc-linux-gnu"

%struct.lean_object = type { i32, i32 }
%"struct.lean::mpz_object" = type { %struct.lean_object, %"class.lean::mpz" }
%"class.lean::mpz" = type { [1 x %struct.__mpz_struct] }
%struct.__mpz_struct = type { i32, i32, ptr }

@.str.14 = private unnamed_addr constant [28 x i8] c"Nat.pow exponent is too big\00", align 1

; Function Attrs: inlinehint mustprogress nounwind uwtable
define internal noundef i64 @_ZL10lean_alignmm(i64 noundef %0, i64 noundef %1) #9 {
  %3 = alloca i64, align 8
  %4 = alloca i64, align 8
  store i64 %0, ptr %3, align 8, !tbaa !7
  store i64 %1, ptr %4, align 8, !tbaa !7
  %5 = load i64, ptr %3, align 8, !tbaa !7
  %6 = load i64, ptr %4, align 8, !tbaa !7
  %7 = udiv i64 %5, %6
  %8 = load i64, ptr %4, align 8, !tbaa !7
  %9 = mul i64 %7, %8
  %10 = load i64, ptr %4, align 8, !tbaa !7
  %11 = load i64, ptr %3, align 8, !tbaa !7
  %12 = load i64, ptr %4, align 8, !tbaa !7
  %13 = urem i64 %11, %12
  %14 = icmp ne i64 %13, 0
  %15 = zext i1 %14 to i64
  %16 = mul i64 %10, %15
  %17 = add i64 %9, %16
  ret i64 %17
}

; Function Attrs: inlinehint mustprogress nounwind uwtable
define internal void @_ZL18lean_set_st_headerP11lean_objectjj(ptr noundef %0, i32 noundef %1, i32 noundef %2) #9 {
  %4 = alloca ptr, align 8
  %5 = alloca i32, align 4
  %6 = alloca i32, align 4
  store ptr %0, ptr %4, align 8, !tbaa !3
  store i32 %1, ptr %5, align 4, !tbaa !19
  store i32 %2, ptr %6, align 4, !tbaa !19
  %7 = load ptr, ptr %4, align 8, !tbaa !3
  %8 = getelementptr inbounds nuw %struct.lean_object, ptr %7, i32 0, i32 0
  store i32 1, ptr %8, align 4, !tbaa !31
  %9 = load i32, ptr %5, align 4, !tbaa !19
  %10 = load ptr, ptr %4, align 8, !tbaa !3
  %11 = getelementptr inbounds nuw %struct.lean_object, ptr %10, i32 0, i32 1
  %12 = load i32, ptr %11, align 4
  %13 = and i32 %9, 255
  %14 = shl i32 %13, 24
  %15 = and i32 %12, 16777215
  %16 = or i32 %15, %14
  store i32 %16, ptr %11, align 4
  %17 = load i32, ptr %6, align 4, !tbaa !19
  %18 = load ptr, ptr %4, align 8, !tbaa !3
  %19 = getelementptr inbounds nuw %struct.lean_object, ptr %18, i32 0, i32 1
  %20 = load i32, ptr %19, align 4
  %21 = and i32 %17, 255
  %22 = shl i32 %21, 16
  %23 = and i32 %20, -16711681
  %24 = or i32 %23, %22
  store i32 %24, ptr %19, align 4
  ret void
}

; Function Attrs: mustprogress uwtable
define linkonce_odr hidden void @_ZN4lean10mpz_objectC2ERKNS_3mpzE(ptr noundef nonnull align 8 dereferenceable(24) %0, ptr noundef nonnull align 8 dereferenceable(16) %1) unnamed_addr #0 comdat align 2 {
  %3 = alloca ptr, align 8
  %4 = alloca ptr, align 8
  store ptr %0, ptr %3, align 8, !tbaa !117
  store ptr %1, ptr %4, align 8, !tbaa !115
  %5 = load ptr, ptr %3, align 8
  %6 = getelementptr inbounds nuw %"struct.lean::mpz_object", ptr %5, i32 0, i32 1
  %7 = load ptr, ptr %4, align 8, !tbaa !115
  call void @_ZN4lean3mpzC1ERKS0_(ptr noundef nonnull align 8 dereferenceable(16) %6, ptr noundef nonnull align 8 dereferenceable(16) %7)
  ret void
}

; Function Attrs: inlinehint mustprogress uwtable
define internal noundef ptr @_ZL23lean_alloc_small_objectj(i32 noundef %0) #3 {
  %2 = alloca i32, align 4
  %3 = alloca ptr, align 8
  %4 = alloca ptr, align 8
  store i32 %0, ptr %2, align 4, !tbaa !19
  call void @lean_inc_heartbeat()
  %5 = load i32, ptr %2, align 4, !tbaa !19
  %6 = zext i32 %5 to i64
  %7 = call noundef i64 @_ZL10lean_alignmm(i64 noundef %6, i64 noundef 8)
  %8 = trunc i64 %7 to i32
  store i32 %8, ptr %2, align 4, !tbaa !19
  call void @llvm.lifetime.start.p0(i64 8, ptr %3) #23
  %9 = load i32, ptr %2, align 4, !tbaa !19
  %10 = zext i32 %9 to i64
  %11 = call noalias ptr @mi_malloc_small(i64 noundef %10) #23
  store ptr %11, ptr %3, align 8, !tbaa !3
  %12 = load ptr, ptr %3, align 8, !tbaa !3
  %13 = icmp eq ptr %12, null
  br i1 %13, label %14, label %15

14:                                               ; preds = %1
  call void @lean_internal_panic_out_of_memory() #25
  unreachable

15:                                               ; preds = %1
  call void @llvm.lifetime.start.p0(i64 8, ptr %4) #23
  %16 = load ptr, ptr %3, align 8, !tbaa !3
  store ptr %16, ptr %4, align 8, !tbaa !3
  %17 = load i32, ptr %2, align 4, !tbaa !19
  %18 = load ptr, ptr %4, align 8, !tbaa !3
  %19 = getelementptr inbounds nuw %struct.lean_object, ptr %18, i32 0, i32 1
  %20 = load i32, ptr %19, align 4
  %21 = and i32 %17, 65535
  %22 = and i32 %20, -65536
  %23 = or i32 %22, %21
  store i32 %23, ptr %19, align 4
  %24 = load ptr, ptr %4, align 8, !tbaa !3
  call void @llvm.lifetime.end.p0(i64 8, ptr %4) #23
  call void @llvm.lifetime.end.p0(i64 8, ptr %3) #23
  ret ptr %24
}

; Function Attrs: mustprogress uwtable
define noundef ptr @_ZN4lean9alloc_mpzERKNS_3mpzE(ptr noundef nonnull align 8 dereferenceable(16) %0) #0 {
  %2 = alloca ptr, align 8
  %3 = alloca ptr, align 8
  %4 = alloca i32, align 4
  %5 = alloca ptr, align 8
  store ptr %0, ptr %2, align 8, !tbaa !115
  call void @llvm.lifetime.start.p0(i64 8, ptr %3) #23
  %6 = call noundef ptr @_ZL23lean_alloc_small_objectj(i32 noundef 24)
  store ptr %6, ptr %3, align 8, !tbaa !3
  call void @llvm.lifetime.start.p0(i64 4, ptr %4) #23
  %7 = load ptr, ptr %3, align 8, !tbaa !3
  %8 = getelementptr inbounds nuw %struct.lean_object, ptr %7, i32 0, i32 1
  %9 = load i32, ptr %8, align 4
  %10 = and i32 %9, 65535
  store i32 %10, ptr %4, align 4, !tbaa !19
  call void @llvm.lifetime.start.p0(i64 8, ptr %5) #23
  %11 = load ptr, ptr %3, align 8, !tbaa !3
  %12 = load ptr, ptr %2, align 8, !tbaa !115
  call void @_ZN4lean10mpz_objectC2ERKNS_3mpzE(ptr noundef nonnull align 8 dereferenceable(24) %11, ptr noundef nonnull align 8 dereferenceable(16) %12)
  store ptr %11, ptr %5, align 8, !tbaa !117
  %13 = load i32, ptr %4, align 4, !tbaa !19
  %14 = load ptr, ptr %5, align 8, !tbaa !117
  %15 = getelementptr inbounds nuw %"struct.lean::mpz_object", ptr %14, i32 0, i32 0
  %16 = getelementptr inbounds nuw %struct.lean_object, ptr %15, i32 0, i32 1
  %17 = load i32, ptr %16, align 4
  %18 = and i32 %13, 65535
  %19 = and i32 %17, -65536
  %20 = or i32 %19, %18
  store i32 %20, ptr %16, align 4
  %21 = load ptr, ptr %5, align 8, !tbaa !117
  call void @_ZL18lean_set_st_headerP11lean_objectjj(ptr noundef %21, i32 noundef 250, i32 noundef 0)
  %22 = load ptr, ptr %5, align 8, !tbaa !117
  call void @llvm.lifetime.end.p0(i64 8, ptr %5) #23
  call void @llvm.lifetime.end.p0(i64 4, ptr %4) #23
  call void @llvm.lifetime.end.p0(i64 8, ptr %3) #23
  ret ptr %22
}

; Function Attrs: inlinehint mustprogress nounwind uwtable
define linkonce_odr hidden noundef ptr @_ZN4lean6to_mpzEP11lean_object(ptr noundef %0) #9 comdat {
  %2 = alloca ptr, align 8
  store ptr %0, ptr %2, align 8, !tbaa !3
  %3 = load ptr, ptr %2, align 8, !tbaa !3
  ret ptr %3
}

; Function Attrs: mustprogress uwtable
define noundef ptr @_ZN4lean15mpz_to_nat_coreERKNS_3mpzE(ptr noundef nonnull align 8 dereferenceable(16) %0) #0 {
  %2 = alloca ptr, align 8
  store ptr %0, ptr %2, align 8, !tbaa !115
  %3 = load ptr, ptr %2, align 8, !tbaa !115
  %4 = call noundef ptr @_ZN4lean9alloc_mpzERKNS_3mpzE(ptr noundef nonnull align 8 dereferenceable(16) %3)
  ret ptr %4
}

; Function Attrs: inlinehint mustprogress nounwind uwtable
define internal noundef ptr @_ZL8lean_boxm(i64 noundef %0) #9 {
  %2 = alloca i64, align 8
  store i64 %0, ptr %2, align 8, !tbaa !7
  %3 = load i64, ptr %2, align 8, !tbaa !7
  %4 = shl i64 %3, 1
  %5 = or i64 %4, 1
  %6 = inttoptr i64 %5 to ptr
  ret ptr %6
}

; Function Attrs: inlinehint mustprogress nounwind uwtable
define linkonce_odr hidden noundef nonnull align 8 dereferenceable(16) ptr @_ZN4lean9mpz_valueEP11lean_object(ptr noundef %0) #9 comdat {
  %2 = alloca ptr, align 8
  store ptr %0, ptr %2, align 8, !tbaa !3
  %3 = load ptr, ptr %2, align 8, !tbaa !3
  %4 = call noundef ptr @_ZN4lean6to_mpzEP11lean_object(ptr noundef %3)
  %5 = getelementptr inbounds nuw %"struct.lean::mpz_object", ptr %4, i32 0, i32 1
  ret ptr %5
}

; Function Attrs: inlinehint mustprogress uwtable
define internal noundef ptr @_ZN4leanL10mpz_to_natERKNS_3mpzE(ptr noundef nonnull align 8 dereferenceable(16) %0) #3 {
  %2 = alloca ptr, align 8
  %3 = alloca ptr, align 8
  store ptr %0, ptr %3, align 8, !tbaa !115
  %4 = load ptr, ptr %3, align 8, !tbaa !115
  %5 = call noundef zeroext i1 @_ZNK4lean3mpz9is_size_tEv(ptr noundef nonnull align 8 dereferenceable(16) %4)
  br i1 %5, label %6, label %14

6:                                                ; preds = %1
  %7 = load ptr, ptr %3, align 8, !tbaa !115
  %8 = call noundef i64 @_ZNK4lean3mpz10get_size_tEv(ptr noundef nonnull align 8 dereferenceable(16) %7)
  %9 = icmp ule i64 %8, 9223372036854775807
  br i1 %9, label %10, label %14

10:                                               ; preds = %6
  %11 = load ptr, ptr %3, align 8, !tbaa !115
  %12 = call noundef i64 @_ZNK4lean3mpz10get_size_tEv(ptr noundef nonnull align 8 dereferenceable(16) %11)
  %13 = call noundef ptr @_ZL8lean_boxm(i64 noundef %12)
  store ptr %13, ptr %2, align 8
  br label %17

14:                                               ; preds = %6, %1
  %15 = load ptr, ptr %3, align 8, !tbaa !115
  %16 = call noundef ptr @_ZN4lean15mpz_to_nat_coreERKNS_3mpzE(ptr noundef nonnull align 8 dereferenceable(16) %15)
  store ptr %16, ptr %2, align 8
  br label %17

17:                                               ; preds = %14, %10
  %18 = load ptr, ptr %2, align 8
  ret ptr %18
}

; Function Attrs: mustprogress uwtable
define linkonce_odr hidden void @_ZN4lean3mpz9of_size_tEm(ptr dead_on_unwind noalias writable sret(%"class.lean::mpz") align 8 %0, i64 noundef %1) #0 comdat align 2 {
  %3 = alloca ptr, align 8
  %4 = alloca i64, align 8
  store ptr %0, ptr %3, align 8
  store i64 %1, ptr %4, align 8, !tbaa !7
  %5 = load i64, ptr %4, align 8, !tbaa !7
  call void @_ZN4lean3mpzC1Em(ptr noundef nonnull align 8 dereferenceable(16) %0, i64 noundef %5)
  ret void
}

; Function Attrs: inlinehint mustprogress nounwind uwtable
define internal noundef i64 @_ZL10lean_unboxP11lean_object(ptr noundef %0) #9 {
  %2 = alloca ptr, align 8
  store ptr %0, ptr %2, align 8, !tbaa !3
  %3 = load ptr, ptr %2, align 8, !tbaa !3
  %4 = ptrtoint ptr %3 to i64
  %5 = lshr i64 %4, 1
  ret i64 %5
}

; Function Attrs: alwaysinline mustprogress nounwind uwtable
define internal noundef zeroext i1 @_ZL14lean_is_scalarP11lean_object(ptr noundef %0) #11 {
  %2 = alloca ptr, align 8
  store ptr %0, ptr %2, align 8, !tbaa !3
  %3 = load ptr, ptr %2, align 8, !tbaa !3
  %4 = ptrtoint ptr %3 to i64
  %5 = and i64 %4, 1
  %6 = icmp eq i64 %5, 1
  ret i1 %6
}

; Function Attrs: mustprogress uwtable
define ptr @lean_nat_pow(ptr noundef %0, ptr noundef %1) #0 personality ptr @__gxx_personality_v0 {
  %3 = alloca ptr, align 8
  %4 = alloca ptr, align 8
  %5 = alloca ptr, align 8
  %6 = alloca %"class.lean::mpz", align 8
  %7 = alloca %"class.lean::mpz", align 8
  %8 = alloca ptr, align 8
  %9 = alloca i32, align 4
  %10 = alloca %"class.lean::mpz", align 8
  store ptr %0, ptr %4, align 8, !tbaa !3
  store ptr %1, ptr %5, align 8, !tbaa !3
  %11 = load ptr, ptr %5, align 8, !tbaa !3
  %12 = call noundef zeroext i1 @_ZL14lean_is_scalarP11lean_object(ptr noundef %11)
  br i1 %12, label %13, label %17

13:                                               ; preds = %2
  %14 = load ptr, ptr %5, align 8, !tbaa !3
  %15 = call noundef i64 @_ZL10lean_unboxP11lean_object(ptr noundef %14)
  %16 = icmp ugt i64 %15, 4294967295
  br i1 %16, label %17, label %18

17:                                               ; preds = %13, %2
  call void @lean_internal_panic(ptr noundef @.str.14) #25
  unreachable

18:                                               ; preds = %13
  %19 = load ptr, ptr %4, align 8, !tbaa !3
  %20 = call noundef zeroext i1 @_ZL14lean_is_scalarP11lean_object(ptr noundef %19)
  br i1 %20, label %21, label %40

21:                                               ; preds = %18
  call void @llvm.lifetime.start.p0(i64 16, ptr %6) #23
  call void @llvm.lifetime.start.p0(i64 16, ptr %7) #23
  %22 = load ptr, ptr %4, align 8, !tbaa !3
  %23 = call noundef i64 @_ZL10lean_unboxP11lean_object(ptr noundef %22)
  call void @_ZN4lean3mpz9of_size_tEm(ptr dead_on_unwind writable sret(%"class.lean::mpz") align 8 %7, i64 noundef %23)
  %24 = load ptr, ptr %5, align 8, !tbaa !3
  %25 = invoke noundef i64 @_ZL10lean_unboxP11lean_object(ptr noundef %24)
          to label %26 unwind label %31

26:                                               ; preds = %21
  %27 = trunc i64 %25 to i32
  invoke void @_ZNK4lean3mpz3powEj(ptr dead_on_unwind writable sret(%"class.lean::mpz") align 8 %6, ptr noundef nonnull align 8 dereferenceable(16) %7, i32 noundef %27)
          to label %28 unwind label %31

28:                                               ; preds = %26
  %29 = invoke noundef ptr @_ZN4leanL10mpz_to_natERKNS_3mpzE(ptr noundef nonnull align 8 dereferenceable(16) %6)
          to label %30 unwind label %35

30:                                               ; preds = %28
  store ptr %29, ptr %3, align 8
  call void @_ZN4lean3mpzD1Ev(ptr noundef nonnull align 8 dereferenceable(16) %6) #23
  call void @_ZN4lean3mpzD1Ev(ptr noundef nonnull align 8 dereferenceable(16) %7) #23
  call void @llvm.lifetime.end.p0(i64 16, ptr %7) #23
  call void @llvm.lifetime.end.p0(i64 16, ptr %6) #23
  br label %52

31:                                               ; preds = %26, %21
  %32 = landingpad { ptr, i32 }
          cleanup
  %33 = extractvalue { ptr, i32 } %32, 0
  store ptr %33, ptr %8, align 8
  %34 = extractvalue { ptr, i32 } %32, 1
  store i32 %34, ptr %9, align 4
  br label %39

35:                                               ; preds = %28
  %36 = landingpad { ptr, i32 }
          cleanup
  %37 = extractvalue { ptr, i32 } %36, 0
  store ptr %37, ptr %8, align 8
  %38 = extractvalue { ptr, i32 } %36, 1
  store i32 %38, ptr %9, align 4
  call void @_ZN4lean3mpzD1Ev(ptr noundef nonnull align 8 dereferenceable(16) %6) #23
  br label %39

39:                                               ; preds = %35, %31
  call void @_ZN4lean3mpzD1Ev(ptr noundef nonnull align 8 dereferenceable(16) %7) #23
  call void @llvm.lifetime.end.p0(i64 16, ptr %7) #23
  call void @llvm.lifetime.end.p0(i64 16, ptr %6) #23
  br label %54

40:                                               ; preds = %18
  call void @llvm.lifetime.start.p0(i64 16, ptr %10) #23
  %41 = load ptr, ptr %4, align 8, !tbaa !3
  %42 = call noundef nonnull align 8 dereferenceable(16) ptr @_ZN4lean9mpz_valueEP11lean_object(ptr noundef %41)
  %43 = load ptr, ptr %5, align 8, !tbaa !3
  %44 = call noundef i64 @_ZL10lean_unboxP11lean_object(ptr noundef %43)
  %45 = trunc i64 %44 to i32
  call void @_ZNK4lean3mpz3powEj(ptr dead_on_unwind writable sret(%"class.lean::mpz") align 8 %10, ptr noundef nonnull align 8 dereferenceable(16) %42, i32 noundef %45)
  %46 = invoke noundef ptr @_ZN4leanL10mpz_to_natERKNS_3mpzE(ptr noundef nonnull align 8 dereferenceable(16) %10)
          to label %47 unwind label %48

47:                                               ; preds = %40
  store ptr %46, ptr %3, align 8
  call void @_ZN4lean3mpzD1Ev(ptr noundef nonnull align 8 dereferenceable(16) %10) #23
  call void @llvm.lifetime.end.p0(i64 16, ptr %10) #23
  br label %52

48:                                               ; preds = %40
  %49 = landingpad { ptr, i32 }
          cleanup
  %50 = extractvalue { ptr, i32 } %49, 0
  store ptr %50, ptr %8, align 8
  %51 = extractvalue { ptr, i32 } %49, 1
  store i32 %51, ptr %9, align 4
  call void @_ZN4lean3mpzD1Ev(ptr noundef nonnull align 8 dereferenceable(16) %10) #23
  call void @llvm.lifetime.end.p0(i64 16, ptr %10) #23
  br label %54

52:                                               ; preds = %47, %30
  %53 = load ptr, ptr %3, align 8
  ret ptr %53

54:                                               ; preds = %48, %39
  %55 = load ptr, ptr %8, align 8
  %56 = load i32, ptr %9, align 4
  %57 = insertvalue { ptr, i32 } poison, ptr %55, 0
  %58 = insertvalue { ptr, i32 } %57, i32 %56, 1
  resume { ptr, i32 } %58
}