; Function Attrs: mustprogress uwtable
define ptr @lean_nat_pow(ptr noundef %0, ptr noundef %1) local_unnamed_addr #0 personality ptr @__gxx_personality_v0 {
  %3 = alloca %"class.lean::mpz", align 8
  %4 = alloca %"class.lean::mpz", align 8
  %5 = alloca %"class.lean::mpz", align 8
  %6 = ptrtoint ptr %1 to i64
  %7 = and i64 %6, 1
  %.not = icmp eq i64 %7, 0
  br i1 %.not, label %11, label %8

8:                                                ; preds = %2
  %9 = lshr i64 %6, 1
  %10 = icmp ugt ptr %1, inttoptr (i64 8589934591 to ptr)
  br i1 %10, label %11, label %12

11:                                               ; preds = %8, %2
  tail call void @lean_internal_panic(ptr noundef nonnull @.str.14) #43
  unreachable

12:                                               ; preds = %8
  %13 = ptrtoint ptr %0 to i64
  %14 = and i64 %13, 1
  %.not28 = icmp eq i64 %14, 0
  br i1 %.not28, label %42, label %15

15:                                               ; preds = %12
  call void @llvm.lifetime.start.p0(i64 16, ptr nonnull %3) #40
  call void @llvm.lifetime.start.p0(i64 16, ptr nonnull %4) #40
  %16 = lshr i64 %13, 1
  call void @_ZN4lean3mpzC1Em(ptr noundef nonnull align 8 dereferenceable(16) %4, i64 noundef %16)
  %17 = trunc nuw i64 %9 to i32
  invoke void @_ZNK4lean3mpz3powEj(ptr dead_on_unwind nonnull writable sret(%"class.lean::mpz") align 8 %3, ptr noundef nonnull align 8 dereferenceable(16) %4, i32 noundef %17)
          to label %18 unwind label %37

18:                                               ; preds = %15
  %19 = invoke noundef zeroext i1 @_ZNK4lean3mpz9is_size_tEv(ptr noundef nonnull align 8 dereferenceable(16) %3)
          to label %.noexc unwind label %39

.noexc:                                           ; preds = %18
  br i1 %19, label %20, label %28

20:                                               ; preds = %.noexc
  %21 = invoke noundef i64 @_ZNK4lean3mpz10get_size_tEv(ptr noundef nonnull align 8 dereferenceable(16) %3)
          to label %.noexc14 unwind label %39

.noexc14:                                         ; preds = %20
  %22 = icmp sgt i64 %21, -1
  br i1 %22, label %23, label %28

23:                                               ; preds = %.noexc14
  %24 = invoke noundef i64 @_ZNK4lean3mpz10get_size_tEv(ptr noundef nonnull align 8 dereferenceable(16) %3)
          to label %.noexc15 unwind label %39

.noexc15:                                         ; preds = %23
  %25 = shl i64 %24, 1
  %26 = or disjoint i64 %25, 1
  %27 = inttoptr i64 %26 to ptr
  br label %_ZN4leanL10mpz_to_natERKNS_3mpzE.exit

28:                                               ; preds = %.noexc14, %.noexc
  invoke void @lean_inc_heartbeat()
          to label %.noexc16 unwind label %39

.noexc16:                                         ; preds = %28
  %29 = call noalias ptr @mi_malloc_small(i64 noundef 24) #40
  %30 = icmp eq ptr %29, null
  br i1 %30, label %31, label %_ZN4lean15mpz_to_nat_coreERKNS_3mpzE.exit.i

31:                                               ; preds = %.noexc16
  invoke void @lean_internal_panic_out_of_memory() #43
          to label %.noexc17 unwind label %39

.noexc17:                                         ; preds = %31
  unreachable

_ZN4lean15mpz_to_nat_coreERKNS_3mpzE.exit.i:      ; preds = %.noexc16
  %32 = getelementptr inbounds nuw i8, ptr %29, i64 4
  %33 = load i32, ptr %32, align 4
  %34 = and i32 %33, -65536
  %35 = or disjoint i32 %34, 24
  store i32 %35, ptr %32, align 4
  %36 = getelementptr inbounds nuw i8, ptr %29, i64 8
  invoke void @_ZN4lean3mpzC1ERKS0_(ptr noundef nonnull align 8 dereferenceable(16) %36, ptr noundef nonnull align 8 dereferenceable(16) %3)
          to label %.noexc18 unwind label %39

.noexc18:                                         ; preds = %_ZN4lean15mpz_to_nat_coreERKNS_3mpzE.exit.i
  store i32 1, ptr %29, align 4, !tbaa !23
  store i32 -100663272, ptr %32, align 4
  br label %_ZN4leanL10mpz_to_natERKNS_3mpzE.exit

_ZN4leanL10mpz_to_natERKNS_3mpzE.exit:            ; preds = %.noexc18, %.noexc15
  %.0.i = phi ptr [ %27, %.noexc15 ], [ %29, %.noexc18 ]
  call void @_ZN4lean3mpzD1Ev(ptr noundef nonnull align 8 dereferenceable(16) %3) #40
  call void @_ZN4lean3mpzD1Ev(ptr noundef nonnull align 8 dereferenceable(16) %4) #40
  call void @llvm.lifetime.end.p0(i64 16, ptr nonnull %4) #40
  call void @llvm.lifetime.end.p0(i64 16, ptr nonnull %3) #40
  br label %65

37:                                               ; preds = %15
  %38 = landingpad { ptr, i32 }
          cleanup
  br label %41

39:                                               ; preds = %_ZN4lean15mpz_to_nat_coreERKNS_3mpzE.exit.i, %31, %28, %23, %20, %18
  %40 = landingpad { ptr, i32 }
          cleanup
  call void @_ZN4lean3mpzD1Ev(ptr noundef nonnull align 8 dereferenceable(16) %3) #40
  br label %41

41:                                               ; preds = %39, %37
  %.pn = phi { ptr, i32 } [ %40, %39 ], [ %38, %37 ]
  call void @_ZN4lean3mpzD1Ev(ptr noundef nonnull align 8 dereferenceable(16) %4) #40
  call void @llvm.lifetime.end.p0(i64 16, ptr nonnull %4) #40
  call void @llvm.lifetime.end.p0(i64 16, ptr nonnull %3) #40
  br label %66

42:                                               ; preds = %12
  call void @llvm.lifetime.start.p0(i64 16, ptr nonnull %5) #40
  %43 = getelementptr inbounds nuw i8, ptr %0, i64 8
  %44 = trunc nuw i64 %9 to i32
  call void @_ZNK4lean3mpz3powEj(ptr dead_on_unwind nonnull writable sret(%"class.lean::mpz") align 8 %5, ptr noundef nonnull align 8 dereferenceable(16) %43, i32 noundef %44)
  %45 = invoke noundef zeroext i1 @_ZNK4lean3mpz9is_size_tEv(ptr noundef nonnull align 8 dereferenceable(16) %5)
          to label %.noexc21 unwind label %63

.noexc21:                                         ; preds = %42
  br i1 %45, label %46, label %54

46:                                               ; preds = %.noexc21
  %47 = invoke noundef i64 @_ZNK4lean3mpz10get_size_tEv(ptr noundef nonnull align 8 dereferenceable(16) %5)
          to label %.noexc22 unwind label %63

.noexc22:                                         ; preds = %46
  %48 = icmp sgt i64 %47, -1
  br i1 %48, label %49, label %54

49:                                               ; preds = %.noexc22
  %50 = invoke noundef i64 @_ZNK4lean3mpz10get_size_tEv(ptr noundef nonnull align 8 dereferenceable(16) %5)
          to label %.noexc23 unwind label %63

.noexc23:                                         ; preds = %49
  %51 = shl i64 %50, 1
  %52 = or disjoint i64 %51, 1
  %53 = inttoptr i64 %52 to ptr
  br label %_ZN4leanL10mpz_to_natERKNS_3mpzE.exit27

54:                                               ; preds = %.noexc22, %.noexc21
  invoke void @lean_inc_heartbeat()
          to label %.noexc24 unwind label %63

.noexc24:                                         ; preds = %54
  %55 = call noalias ptr @mi_malloc_small(i64 noundef 24) #40
  %56 = icmp eq ptr %55, null
  br i1 %56, label %57, label %_ZN4lean15mpz_to_nat_coreERKNS_3mpzE.exit.i19

57:                                               ; preds = %.noexc24
  invoke void @lean_internal_panic_out_of_memory() #43
          to label %.noexc25 unwind label %63

.noexc25:                                         ; preds = %57
  unreachable

_ZN4lean15mpz_to_nat_coreERKNS_3mpzE.exit.i19:    ; preds = %.noexc24
  %58 = getelementptr inbounds nuw i8, ptr %55, i64 4
  %59 = load i32, ptr %58, align 4
  %60 = and i32 %59, -65536
  %61 = or disjoint i32 %60, 24
  store i32 %61, ptr %58, align 4
  %62 = getelementptr inbounds nuw i8, ptr %55, i64 8
  invoke void @_ZN4lean3mpzC1ERKS0_(ptr noundef nonnull align 8 dereferenceable(16) %62, ptr noundef nonnull align 8 dereferenceable(16) %5)
          to label %.noexc26 unwind label %63

.noexc26:                                         ; preds = %_ZN4lean15mpz_to_nat_coreERKNS_3mpzE.exit.i19
  store i32 1, ptr %55, align 4, !tbaa !23
  store i32 -100663272, ptr %58, align 4
  br label %_ZN4leanL10mpz_to_natERKNS_3mpzE.exit27

_ZN4leanL10mpz_to_natERKNS_3mpzE.exit27:          ; preds = %.noexc26, %.noexc23
  %.0.i20 = phi ptr [ %53, %.noexc23 ], [ %55, %.noexc26 ]
  call void @_ZN4lean3mpzD1Ev(ptr noundef nonnull align 8 dereferenceable(16) %5) #40
  call void @llvm.lifetime.end.p0(i64 16, ptr nonnull %5) #40
  br label %65

63:                                               ; preds = %_ZN4lean15mpz_to_nat_coreERKNS_3mpzE.exit.i19, %57, %54, %49, %46, %42
  %64 = landingpad { ptr, i32 }
          cleanup
  call void @_ZN4lean3mpzD1Ev(ptr noundef nonnull align 8 dereferenceable(16) %5) #40
  call void @llvm.lifetime.end.p0(i64 16, ptr nonnull %5) #40
  br label %66

65:                                               ; preds = %_ZN4leanL10mpz_to_natERKNS_3mpzE.exit27, %_ZN4leanL10mpz_to_natERKNS_3mpzE.exit
  %.011 = phi ptr [ %.0.i, %_ZN4leanL10mpz_to_natERKNS_3mpzE.exit ], [ %.0.i20, %_ZN4leanL10mpz_to_natERKNS_3mpzE.exit27 ]
  ret ptr %.011

66:                                               ; preds = %63, %41
  %.pn.pn = phi { ptr, i32 } [ %.pn, %41 ], [ %64, %63 ]
  resume { ptr, i32 } %.pn.pn
}